target datalayout = "e-m:e-p270:32:32-p271:32:32-p272:64:64-i64:64-i128:128-f80:128-n8:16:32:64-S128"
target triple = "x86_64-pc-linux-gnu"

%"class.vas::ot::Tracker::InitParameters" = type { i32, i32, i32, i32, i8, float }
%"class.vas::ot::ShortTermImagelessTracker" = type { %"class.vas::ot::Tracker", %"class.cv::Size_" }
%"class.vas::ot::Tracker" = type { ptr, i32, i32, i32, float, i32, [4 x i8], %"class.vas::ot::ObjectsAssociator", %"class.std::vector" }
%"class.vas::ot::ObjectsAssociator" = type <{ ptr, i8, [7 x i8] }>
%"class.std::vector" = type { %"struct.std::_Vector_base" }
%"struct.std::_Vector_base" = type { %"struct.std::_Vector_base<std::shared_ptr<vas::ot::Tracklet>, std::allocator<std::shared_ptr<vas::ot::Tracklet>>>::_Vector_impl" }
%"struct.std::_Vector_base<std::shared_ptr<vas::ot::Tracklet>, std::allocator<std::shared_ptr<vas::ot::Tracklet>>>::_Vector_impl" = type { %"struct.std::_Vector_base<std::shared_ptr<vas::ot::Tracklet>, std::allocator<std::shared_ptr<vas::ot::Tracklet>>>::_Vector_impl_data" }
%"struct.std::_Vector_base<std::shared_ptr<vas::ot::Tracklet>, std::allocator<std::shared_ptr<vas::ot::Tracklet>>>::_Vector_impl_data" = type { ptr, ptr, ptr }
%"class.cv::Size_" = type { i32, i32 }

; Function Attrs: inlinehint mustprogress nounwind uwtable
define linkonce_odr hidden void @_ZN2cv5Size_IiEC2Eii(ptr noundef nonnull align 4 dereferenceable(8) %0, i32 noundef %1, i32 noundef %2) unnamed_addr #2 comdat align 2 {
  %4 = alloca ptr, align 8
  %5 = alloca i32, align 4
  %6 = alloca i32, align 4
  store ptr %0, ptr %4, align 8, !tbaa !22
  store i32 %1, ptr %5, align 4, !tbaa !24
  store i32 %2, ptr %6, align 4, !tbaa !24
  %7 = load ptr, ptr %4, align 8
  %8 = getelementptr inbounds nuw %"class.cv::Size_", ptr %7, i32 0, i32 0
  %9 = load i32, ptr %5, align 4, !tbaa !24
  store i32 %9, ptr %8, align 4, !tbaa !25
  %10 = getelementptr inbounds nuw %"class.cv::Size_", ptr %7, i32 0, i32 1
  %11 = load i32, ptr %6, align 4, !tbaa !24
  store i32 %11, ptr %10, align 4, !tbaa !27
  ret void
}

; Function Attrs: mustprogress uwtable
define hidden void @_ZN3vas2ot25ShortTermImagelessTrackerC2ENS0_7Tracker14InitParametersE(ptr noundef nonnull align 8 dereferenceable(80) %0, ptr noundef byval(%"class.vas::ot::Tracker::InitParameters") align 8 %1) unnamed_addr #0 align 2 personality ptr @__gxx_personality_v0 {
  %3 = alloca ptr, align 8
  %4 = alloca ptr, align 8
  %5 = alloca i32, align 4
  store ptr %0, ptr %3, align 8, !tbaa !3
  %6 = load ptr, ptr %3, align 8
  %7 = getelementptr inbounds nuw %"class.vas::ot::Tracker::InitParameters", ptr %1, i32 0, i32 1
  %8 = load i32, ptr %7, align 4, !tbaa !8
  %9 = getelementptr inbounds nuw %"class.vas::ot::Tracker::InitParameters", ptr %1, i32 0, i32 5
  %10 = load float, ptr %9, align 4, !tbaa !15
  %11 = getelementptr inbounds nuw %"class.vas::ot::Tracker::InitParameters", ptr %1, i32 0, i32 3
  %12 = load i32, ptr %11, align 4, !tbaa !16
  %13 = getelementptr inbounds nuw %"class.vas::ot::Tracker::InitParameters", ptr %1, i32 0, i32 4
  %14 = load i8, ptr %13, align 8, !tbaa !17, !range !18, !noundef !19
  %15 = trunc i8 %14 to i1
  call void @_ZN3vas2ot7TrackerC2EifNS_11ColorFormatEb(ptr noundef nonnull align 8 dereferenceable(72) %6, i32 noundef %8, float noundef %10, i32 noundef %12, i1 noundef zeroext %15)
  store ptr getelementptr inbounds inrange(-16, 24) ({ [5 x ptr] }, ptr @_ZTVN3vas2ot25ShortTermImagelessTrackerE, i32 0, i32 0, i32 2), ptr %6, align 8, !tbaa !20
  %16 = getelementptr inbounds nuw %"class.vas::ot::ShortTermImagelessTracker", ptr %6, i32 0, i32 1
  invoke void @_ZN2cv5Size_IiEC2Eii(ptr noundef nonnull align 4 dereferenceable(8) %16, i32 noundef 0, i32 noundef 0)
          to label %17 unwind label %18

17:                                               ; preds = %2
  ret void

18:                                               ; preds = %2
  %19 = landingpad { ptr, i32 }
          cleanup
  %20 = extractvalue { ptr, i32 } %19, 0
  store ptr %20, ptr %4, align 8
  %21 = extractvalue { ptr, i32 } %19, 1
  store i32 %21, ptr %5, align 4
  call void @_ZN3vas2ot7TrackerD2Ev(ptr noundef nonnull align 8 dereferenceable(72) %6) #21
  br label %22

22:                                               ; preds = %18
  %23 = load ptr, ptr %4, align 8
  %24 = load i32, ptr %5, align 4
  %25 = insertvalue { ptr, i32 } poison, ptr %23, 0
  %26 = insertvalue { ptr, i32 } %25, i32 %24, 1
  resume { ptr, i32 } %26
}